
helloctf:     file format elf64-x86-64


Disassembly of section .init:

0000000000401000 <_init>:
  401000:	f3 0f 1e fa          	endbr64 
  401004:	48 83 ec 08          	sub    $0x8,%rsp
  401008:	48 8b 05 e9 2f 00 00 	mov    0x2fe9(%rip),%rax        # 403ff8 <__gmon_start__>
  40100f:	48 85 c0             	test   %rax,%rax
  401012:	74 02                	je     401016 <_init+0x16>
  401014:	ff d0                	callq  *%rax
  401016:	48 83 c4 08          	add    $0x8,%rsp
  40101a:	c3                   	retq   

Disassembly of section .plt:

0000000000401020 <.plt>:
  401020:	ff 35 e2 2f 00 00    	pushq  0x2fe2(%rip)        # 404008 <_GLOBAL_OFFSET_TABLE_+0x8>
  401026:	f2 ff 25 e3 2f 00 00 	bnd jmpq *0x2fe3(%rip)        # 404010 <_GLOBAL_OFFSET_TABLE_+0x10>
  40102d:	0f 1f 00             	nopl   (%rax)
  401030:	f3 0f 1e fa          	endbr64 
  401034:	68 00 00 00 00       	pushq  $0x0
  401039:	f2 e9 e1 ff ff ff    	bnd jmpq 401020 <.plt>
  40103f:	90                   	nop
  401040:	f3 0f 1e fa          	endbr64 
  401044:	68 01 00 00 00       	pushq  $0x1
  401049:	f2 e9 d1 ff ff ff    	bnd jmpq 401020 <.plt>
  40104f:	90                   	nop
  401050:	f3 0f 1e fa          	endbr64 
  401054:	68 02 00 00 00       	pushq  $0x2
  401059:	f2 e9 c1 ff ff ff    	bnd jmpq 401020 <.plt>
  40105f:	90                   	nop
  401060:	f3 0f 1e fa          	endbr64 
  401064:	68 03 00 00 00       	pushq  $0x3
  401069:	f2 e9 b1 ff ff ff    	bnd jmpq 401020 <.plt>
  40106f:	90                   	nop
  401070:	f3 0f 1e fa          	endbr64 
  401074:	68 04 00 00 00       	pushq  $0x4
  401079:	f2 e9 a1 ff ff ff    	bnd jmpq 401020 <.plt>
  40107f:	90                   	nop
  401080:	f3 0f 1e fa          	endbr64 
  401084:	68 05 00 00 00       	pushq  $0x5
  401089:	f2 e9 91 ff ff ff    	bnd jmpq 401020 <.plt>
  40108f:	90                   	nop

Disassembly of section .plt.sec:

0000000000401090 <strncmp@plt>:
  401090:	f3 0f 1e fa          	endbr64 
  401094:	f2 ff 25 7d 2f 00 00 	bnd jmpq *0x2f7d(%rip)        # 404018 <strncmp@GLIBC_2.2.5>
  40109b:	0f 1f 44 00 00       	nopl   0x0(%rax,%rax,1)

00000000004010a0 <puts@plt>:
  4010a0:	f3 0f 1e fa          	endbr64 
  4010a4:	f2 ff 25 75 2f 00 00 	bnd jmpq *0x2f75(%rip)        # 404020 <puts@GLIBC_2.2.5>
  4010ab:	0f 1f 44 00 00       	nopl   0x0(%rax,%rax,1)

00000000004010b0 <execve@plt>:
  4010b0:	f3 0f 1e fa          	endbr64 
  4010b4:	f2 ff 25 6d 2f 00 00 	bnd jmpq *0x2f6d(%rip)        # 404028 <execve@GLIBC_2.2.5>
  4010bb:	0f 1f 44 00 00       	nopl   0x0(%rax,%rax,1)

00000000004010c0 <gets@plt>:
  4010c0:	f3 0f 1e fa          	endbr64 
  4010c4:	f2 ff 25 65 2f 00 00 	bnd jmpq *0x2f65(%rip)        # 404030 <gets@GLIBC_2.2.5>
  4010cb:	0f 1f 44 00 00       	nopl   0x0(%rax,%rax,1)

00000000004010d0 <setvbuf@plt>:
  4010d0:	f3 0f 1e fa          	endbr64 
  4010d4:	f2 ff 25 5d 2f 00 00 	bnd jmpq *0x2f5d(%rip)        # 404038 <setvbuf@GLIBC_2.2.5>
  4010db:	0f 1f 44 00 00       	nopl   0x0(%rax,%rax,1)

00000000004010e0 <exit@plt>:
  4010e0:	f3 0f 1e fa          	endbr64 
  4010e4:	f2 ff 25 55 2f 00 00 	bnd jmpq *0x2f55(%rip)        # 404040 <exit@GLIBC_2.2.5>
  4010eb:	0f 1f 44 00 00       	nopl   0x0(%rax,%rax,1)

Disassembly of section .text:

00000000004010f0 <_start>:
  4010f0:	f3 0f 1e fa          	endbr64 
  4010f4:	31 ed                	xor    %ebp,%ebp
  4010f6:	49 89 d1             	mov    %rdx,%r9
  4010f9:	5e                   	pop    %rsi
  4010fa:	48 89 e2             	mov    %rsp,%rdx
  4010fd:	48 83 e4 f0          	and    $0xfffffffffffffff0,%rsp
  401101:	50                   	push   %rax
  401102:	54                   	push   %rsp
  401103:	49 c7 c0 30 13 40 00 	mov    $0x401330,%r8
  40110a:	48 c7 c1 c0 12 40 00 	mov    $0x4012c0,%rcx
  401111:	48 c7 c7 5c 12 40 00 	mov    $0x40125c,%rdi
  401118:	ff 15 d2 2e 00 00    	callq  *0x2ed2(%rip)        # 403ff0 <__libc_start_main@GLIBC_2.2.5>
  40111e:	f4                   	hlt    
  40111f:	90                   	nop

0000000000401120 <_dl_relocate_static_pie>:
  401120:	f3 0f 1e fa          	endbr64 
  401124:	c3                   	retq   
  401125:	66 2e 0f 1f 84 00 00 	nopw   %cs:0x0(%rax,%rax,1)
  40112c:	00 00 00 
  40112f:	90                   	nop

0000000000401130 <deregister_tm_clones>:
  401130:	b8 58 40 40 00       	mov    $0x404058,%eax
  401135:	48 3d 58 40 40 00    	cmp    $0x404058,%rax
  40113b:	74 13                	je     401150 <deregister_tm_clones+0x20>
  40113d:	b8 00 00 00 00       	mov    $0x0,%eax
  401142:	48 85 c0             	test   %rax,%rax
  401145:	74 09                	je     401150 <deregister_tm_clones+0x20>
  401147:	bf 58 40 40 00       	mov    $0x404058,%edi
  40114c:	ff e0                	jmpq   *%rax
  40114e:	66 90                	xchg   %ax,%ax
  401150:	c3                   	retq   
  401151:	66 66 2e 0f 1f 84 00 	data16 nopw %cs:0x0(%rax,%rax,1)
  401158:	00 00 00 00 
  40115c:	0f 1f 40 00          	nopl   0x0(%rax)

0000000000401160 <register_tm_clones>:
  401160:	be 58 40 40 00       	mov    $0x404058,%esi
  401165:	48 81 ee 58 40 40 00 	sub    $0x404058,%rsi
  40116c:	48 89 f0             	mov    %rsi,%rax
  40116f:	48 c1 ee 3f          	shr    $0x3f,%rsi
  401173:	48 c1 f8 03          	sar    $0x3,%rax
  401177:	48 01 c6             	add    %rax,%rsi
  40117a:	48 d1 fe             	sar    %rsi
  40117d:	74 11                	je     401190 <register_tm_clones+0x30>
  40117f:	b8 00 00 00 00       	mov    $0x0,%eax
  401184:	48 85 c0             	test   %rax,%rax
  401187:	74 07                	je     401190 <register_tm_clones+0x30>
  401189:	bf 58 40 40 00       	mov    $0x404058,%edi
  40118e:	ff e0                	jmpq   *%rax
  401190:	c3                   	retq   
  401191:	66 66 2e 0f 1f 84 00 	data16 nopw %cs:0x0(%rax,%rax,1)
  401198:	00 00 00 00 
  40119c:	0f 1f 40 00          	nopl   0x0(%rax)

00000000004011a0 <__do_global_dtors_aux>:
  4011a0:	f3 0f 1e fa          	endbr64 
  4011a4:	80 3d dd 2e 00 00 00 	cmpb   $0x0,0x2edd(%rip)        # 404088 <completed.8060>
  4011ab:	75 13                	jne    4011c0 <__do_global_dtors_aux+0x20>
  4011ad:	55                   	push   %rbp
  4011ae:	48 89 e5             	mov    %rsp,%rbp
  4011b1:	e8 7a ff ff ff       	callq  401130 <deregister_tm_clones>
  4011b6:	c6 05 cb 2e 00 00 01 	movb   $0x1,0x2ecb(%rip)        # 404088 <completed.8060>
  4011bd:	5d                   	pop    %rbp
  4011be:	c3                   	retq   
  4011bf:	90                   	nop
  4011c0:	c3                   	retq   
  4011c1:	66 66 2e 0f 1f 84 00 	data16 nopw %cs:0x0(%rax,%rax,1)
  4011c8:	00 00 00 00 
  4011cc:	0f 1f 40 00          	nopl   0x0(%rax)

00000000004011d0 <frame_dummy>:
  4011d0:	f3 0f 1e fa          	endbr64 
  4011d4:	eb 8a                	jmp    401160 <register_tm_clones>

00000000004011d6 <init>:
  4011d6:	f3 0f 1e fa          	endbr64 
  4011da:	55                   	push   %rbp
  4011db:	48 89 e5             	mov    %rsp,%rbp
  4011de:	48 8b 05 8b 2e 00 00 	mov    0x2e8b(%rip),%rax        # 404070 <stdin@@GLIBC_2.2.5>
  4011e5:	b9 00 00 00 00       	mov    $0x0,%ecx
  4011ea:	ba 02 00 00 00       	mov    $0x2,%edx
  4011ef:	be 00 00 00 00       	mov    $0x0,%esi
  4011f4:	48 89 c7             	mov    %rax,%rdi
  4011f7:	e8 d4 fe ff ff       	callq  4010d0 <setvbuf@plt>
  4011fc:	48 8b 05 5d 2e 00 00 	mov    0x2e5d(%rip),%rax        # 404060 <stdout@@GLIBC_2.2.5>
  401203:	b9 00 00 00 00       	mov    $0x0,%ecx
  401208:	ba 02 00 00 00       	mov    $0x2,%edx
  40120d:	be 00 00 00 00       	mov    $0x0,%esi
  401212:	48 89 c7             	mov    %rax,%rdi
  401215:	e8 b6 fe ff ff       	callq  4010d0 <setvbuf@plt>
  40121a:	48 8b 05 5f 2e 00 00 	mov    0x2e5f(%rip),%rax        # 404080 <stderr@@GLIBC_2.2.5>
  401221:	b9 00 00 00 00       	mov    $0x0,%ecx
  401226:	ba 02 00 00 00       	mov    $0x2,%edx
  40122b:	be 00 00 00 00       	mov    $0x0,%esi
  401230:	48 89 c7             	mov    %rax,%rdi
  401233:	e8 98 fe ff ff       	callq  4010d0 <setvbuf@plt>
  401238:	90                   	nop
  401239:	5d                   	pop    %rbp
  40123a:	c3                   	retq   

000000000040123b <magic>:
  40123b:	f3 0f 1e fa          	endbr64 
  40123f:	55                   	push   %rbp
  401240:	48 89 e5             	mov    %rsp,%rbp
  401243:	ba 00 00 00 00       	mov    $0x0,%edx
  401248:	be 00 00 00 00       	mov    $0x0,%esi
  40124d:	48 8d 3d b0 0d 00 00 	lea    0xdb0(%rip),%rdi        # 402004 <_IO_stdin_used+0x4>
  401254:	e8 57 fe ff ff       	callq  4010b0 <execve@plt>
  401259:	90                   	nop
  40125a:	5d                   	pop    %rbp
  40125b:	c3                   	retq   

000000000040125c <main>:
  40125c:	f3 0f 1e fa          	endbr64 
  401260:	55                   	push   %rbp
  401261:	48 89 e5             	mov    %rsp,%rbp
  401264:	48 83 ec 10          	sub    $0x10,%rsp
  401268:	b8 00 00 00 00       	mov    $0x0,%eax
  40126d:	e8 64 ff ff ff       	callq  4011d6 <init>
  401272:	48 8d 3d 93 0d 00 00 	lea    0xd93(%rip),%rdi        # 40200c <_IO_stdin_used+0xc>
  401279:	e8 22 fe ff ff       	callq  4010a0 <puts@plt>
  40127e:	48 8d 45 f0          	lea    -0x10(%rbp),%rax
  401282:	48 89 c7             	mov    %rax,%rdi
  401285:	b8 00 00 00 00       	mov    $0x0,%eax
  40128a:	e8 31 fe ff ff       	callq  4010c0 <gets@plt>
  40128f:	48 8d 45 f0          	lea    -0x10(%rbp),%rax
  401293:	ba 03 00 00 00       	mov    $0x3,%edx
  401298:	48 8d 35 81 0d 00 00 	lea    0xd81(%rip),%rsi        # 402020 <_IO_stdin_used+0x20>
  40129f:	48 89 c7             	mov    %rax,%rdi
  4012a2:	e8 e9 fd ff ff       	callq  401090 <strncmp@plt>
  4012a7:	85 c0                	test   %eax,%eax
  4012a9:	74 0a                	je     4012b5 <main+0x59>
  4012ab:	bf 00 00 00 00       	mov    $0x0,%edi
  4012b0:	e8 2b fe ff ff       	callq  4010e0 <exit@plt>
  4012b5:	b8 00 00 00 00       	mov    $0x0,%eax
  4012ba:	c9                   	leaveq 
  4012bb:	c3                   	retq   
  4012bc:	0f 1f 40 00          	nopl   0x0(%rax)

00000000004012c0 <__libc_csu_init>:
  4012c0:	f3 0f 1e fa          	endbr64 
  4012c4:	41 57                	push   %r15
  4012c6:	4c 8d 3d 43 2b 00 00 	lea    0x2b43(%rip),%r15        # 403e10 <__frame_dummy_init_array_entry>
  4012cd:	41 56                	push   %r14
  4012cf:	49 89 d6             	mov    %rdx,%r14
  4012d2:	41 55                	push   %r13
  4012d4:	49 89 f5             	mov    %rsi,%r13
  4012d7:	41 54                	push   %r12
  4012d9:	41 89 fc             	mov    %edi,%r12d
  4012dc:	55                   	push   %rbp
  4012dd:	48 8d 2d 34 2b 00 00 	lea    0x2b34(%rip),%rbp        # 403e18 <__do_global_dtors_aux_fini_array_entry>
  4012e4:	53                   	push   %rbx
  4012e5:	4c 29 fd             	sub    %r15,%rbp
  4012e8:	48 83 ec 08          	sub    $0x8,%rsp
  4012ec:	e8 0f fd ff ff       	callq  401000 <_init>
  4012f1:	48 c1 fd 03          	sar    $0x3,%rbp
  4012f5:	74 1f                	je     401316 <__libc_csu_init+0x56>
  4012f7:	31 db                	xor    %ebx,%ebx
  4012f9:	0f 1f 80 00 00 00 00 	nopl   0x0(%rax)
  401300:	4c 89 f2             	mov    %r14,%rdx
  401303:	4c 89 ee             	mov    %r13,%rsi
  401306:	44 89 e7             	mov    %r12d,%edi
  401309:	41 ff 14 df          	callq  *(%r15,%rbx,8)
  40130d:	48 83 c3 01          	add    $0x1,%rbx
  401311:	48 39 dd             	cmp    %rbx,%rbp
  401314:	75 ea                	jne    401300 <__libc_csu_init+0x40>
  401316:	48 83 c4 08          	add    $0x8,%rsp
  40131a:	5b                   	pop    %rbx
  40131b:	5d                   	pop    %rbp
  40131c:	41 5c                	pop    %r12
  40131e:	41 5d                	pop    %r13
  401320:	41 5e                	pop    %r14
  401322:	41 5f                	pop    %r15
  401324:	c3                   	retq   
  401325:	66 66 2e 0f 1f 84 00 	data16 nopw %cs:0x0(%rax,%rax,1)
  40132c:	00 00 00 00 

0000000000401330 <__libc_csu_fini>:
  401330:	f3 0f 1e fa          	endbr64 
  401334:	c3                   	retq   

Disassembly of section .fini:

0000000000401338 <_fini>:
  401338:	f3 0f 1e fa          	endbr64 
  40133c:	48 83 ec 08          	sub    $0x8,%rsp
  401340:	48 83 c4 08          	add    $0x8,%rsp
  401344:	c3                   	retq   
